; Function Attrs: nounwind uwtable
define ptr @ENGINE_get_prev(ptr noundef %0) local_unnamed_addr #0 {
  %2 = icmp eq ptr %0, null
  br i1 %2, label %3, label %4

3:                                                ; preds = %1
  tail call void @ERR_new() #4
  tail call void @ERR_set_debug(ptr noundef nonnull @.str, i32 noundef 315, ptr noundef nonnull @__func__.ENGINE_get_prev) #4
  tail call void (i32, i32, ptr, ...) @ERR_set_error(i32 noundef 38, i32 noundef 786690, ptr noundef null) #4
  br label %17

4:                                                ; preds = %1
  %5 = load ptr, ptr @global_engine_lock, align 8, !tbaa !21
  %6 = tail call i32 @CRYPTO_THREAD_write_lock(ptr noundef %5) #4
  %.not = icmp eq i32 %6, 0
  br i1 %.not, label %17, label %7

7:                                                ; preds = %4
  %8 = getelementptr inbounds nuw i8, ptr %0, i64 184
  %9 = load ptr, ptr %8, align 8, !tbaa !28
  %.not10 = icmp eq ptr %9, null
  br i1 %.not10, label %13, label %10

10:                                               ; preds = %7
  %11 = getelementptr inbounds nuw i8, ptr %9, i64 156
  %12 = atomicrmw add ptr %11, i32 1 monotonic, align 4
  br label %13

13:                                               ; preds = %10, %7
  %14 = load ptr, ptr @global_engine_lock, align 8, !tbaa !21
  %15 = tail call i32 @CRYPTO_THREAD_unlock(ptr noundef %14) #4
  %16 = tail call i32 @ENGINE_free(ptr noundef nonnull %0) #4
  br label %17

17:                                               ; preds = %4, %13, %3
  %.07 = phi ptr [ null, %3 ], [ %9, %13 ], [ null, %4 ]
  ret ptr %.07
}